; Function Attrs: mustprogress nounwind uwtable
define hidden void @_ZN16G1NMethodClosure10do_markingEP7nmethod(ptr noundef nonnull align 8 dereferenceable(65) %0, ptr noundef nonnull %1) local_unnamed_addr #0 align 2 {
  %3 = getelementptr inbounds i8, ptr %0, i64 40
  tail call void @_ZN7nmethod7oops_doEP10OopClosureb(ptr noundef nonnull align 8 dereferenceable(214) %1, ptr noundef nonnull %3, i1 noundef zeroext false) #8
  tail call void @_ZN7nmethod22mark_as_maybe_on_stackEv(ptr noundef nonnull align 8 dereferenceable(214) %1) #8
  %4 = load ptr, ptr @_ZN10BarrierSet12_barrier_setE, align 8
  %5 = getelementptr inbounds i8, ptr %4, i64 48
  %6 = load ptr, ptr %5, align 8
  %.not = icmp eq ptr %6, null
  br i1 %.not, label %8, label %7

7:                                                ; preds = %2
  tail call void @_ZN17BarrierSetNMethod6disarmEP7nmethod(ptr noundef nonnull align 8 dereferenceable(12) %6, ptr noundef nonnull %1) #8
  br label %8

8:                                                ; preds = %7, %2
  ret void
}